Certificate:
    Data:
        Version: 3 (0x2)
        Serial Number: 4097 (0x1001)
        Signature Algorithm: sha256WithRSAEncryption
        Issuer: C=UA, ST=Ukraine, L=Kyiv, O=KPI, OU=OT, CN=planet CA
        Validity
            Not Before: May  7 21:24:34 2025 GMT
            Not After : Aug 10 21:24:34 2027 GMT
        Subject: C=UA, ST=Ukraine, L=Kyiv, O=KPI, OU=OT, CN=mail.zone02.org
        Subject Public Key Info:
            Public Key Algorithm: rsaEncryption
                Public-Key: (4096 bit)
                Modulus:
                    00:9c:eb:38:d4:0d:e4:5a:6f:7e:4e:eb:6a:65:d9:
                    01:a1:ae:bf:1f:70:60:8a:20:41:7c:5e:e7:c6:72:
                    f8:1f:91:c7:db:ac:e4:ac:f2:c3:88:26:97:37:21:
                    47:03:a2:e0:f4:b3:46:4a:e5:da:c0:f5:82:02:d6:
                    b9:e9:76:f3:b1:89:a9:0b:8e:a1:9e:f6:55:1a:51:
                    5d:39:c0:b1:00:de:de:9c:aa:01:47:69:c3:51:64:
                    04:7c:7d:05:cd:5c:8b:16:65:d4:05:ca:bc:15:ae:
                    24:32:a8:b0:0f:45:8c:0b:ff:d3:08:27:6f:c0:32:
                    80:33:ea:df:12:eb:b4:f4:82:de:d2:4c:16:ae:7c:
                    85:0d:d8:b9:ca:8e:35:60:84:d6:63:19:a7:f9:3c:
                    de:a9:96:d8:75:ca:ce:bf:a0:6e:f7:8a:82:3d:a3:
                    44:72:88:bd:92:b4:46:9e:45:45:1d:9b:32:01:e0:
                    dd:86:99:58:74:ec:c5:6f:09:55:e2:91:0e:d1:63:
                    8e:8e:57:1a:a2:9b:6f:8f:4f:61:98:84:2b:f1:d6:
                    d9:6c:fe:96:8e:18:18:97:9e:6a:3f:aa:04:ff:58:
                    9f:2d:6d:30:ea:c4:8f:b4:77:ab:3b:14:6a:f3:45:
                    4c:28:57:a6:0d:de:75:21:7e:5c:46:11:f7:97:12:
                    c3:e9:ac:cf:38:f7:77:9e:ce:a4:34:43:53:af:78:
                    38:0f:ab:01:24:16:d1:d6:79:9b:d0:fd:9c:2f:14:
                    db:67:a0:12:e2:f3:2a:f1:8f:b4:c0:25:7f:a3:a4:
                    1c:8a:ec:d4:7d:1e:2c:5c:b9:4c:68:71:71:ed:04:
                    61:c2:f6:d0:fd:33:3c:63:91:b7:30:0e:83:69:13:
                    d3:42:3c:d3:44:73:af:7e:34:36:c4:c1:a8:a1:e8:
                    dd:cd:5d:01:bb:27:46:ac:2c:41:3b:56:57:66:0e:
                    6e:60:8c:19:74:02:78:ca:36:42:0d:c3:da:b5:de:
                    68:47:1b:9d:c0:12:2f:ee:a6:21:ed:ad:bc:1c:84:
                    67:52:33:56:eb:3a:18:77:77:bf:a7:d4:d7:23:42:
                    12:bc:b2:6f:d2:25:58:15:97:16:a9:55:d5:e0:db:
                    dc:4e:de:f0:cd:74:ef:76:7d:55:21:8e:27:1c:7d:
                    f1:a6:93:e6:df:b3:9e:d4:7e:ad:91:77:c4:8d:d2:
                    50:bd:0f:ae:96:0c:ad:b9:14:45:db:c0:66:06:05:
                    4d:46:97:d5:ad:83:2b:fd:e2:d4:be:ef:91:c4:f0:
                    25:09:04:bc:61:31:fa:19:1f:e7:5f:2f:65:05:5f:
                    12:b6:81:e9:27:c8:b9:c8:98:ad:54:c5:74:d9:61:
                    e5:55:a7
                Exponent: 65537 (0x10001)
        X509v3 extensions:
            X509v3 Subject Alternative Name: 
                DNS:mail.zone02.org, DNS:zone02.org
            X509v3 Subject Key Identifier: 
                34:5E:6C:94:2F:64:90:B4:AD:B7:8C:5D:F6:5C:63:2A:1B:74:3D:C5
            X509v3 Authority Key Identifier: 
                E3:B6:47:56:F9:A6:02:05:58:4F:78:43:C8:17:BA:43:F3:0B:06:D4
    Signature Algorithm: sha256WithRSAEncryption
    Signature Value:
        79:ee:55:10:43:50:0d:8d:ec:4b:45:83:96:ec:d3:f2:8a:73:
        56:a1:4a:b2:7e:82:cc:8b:c1:ed:aa:de:36:e6:36:be:5c:07:
        19:0f:d7:eb:80:2e:de:d2:b0:3b:9f:eb:e5:1b:d3:15:17:c0:
        ad:92:3d:e5:ba:82:3d:a9:45:a4:c7:68:da:b2:43:bf:d8:15:
        82:b7:f4:dd:4e:30:78:cc:ec:06:e8:1a:38:3e:fe:d6:18:43:
        62:7e:e7:a3:55:60:f2:07:23:10:2e:74:4c:6a:b4:77:35:f3:
        db:31:4d:80:f9:84:5b:e3:12:97:7a:43:74:59:46:bc:26:3a:
        07:5d:89:04:8e:82:12:ce:aa:60:a0:c3:ec:14:fd:3f:95:bc:
        1c:28:f1:53:f2:a3:82:c9:95:ed:00:08:1c:fe:cb:99:0b:a1:
        36:bb:19:30:d3:47:9b:f7:30:e6:92:14:a7:93:d1:3c:42:33:
        12:83:30:ca:51:0f:bb:17:8d:67:0d:93:63:93:e2:bc:25:88:
        ba:09:3a:ea:14:fe:2d:93:5f:89:35:9f:a6:10:d5:48:63:54:
        1a:b2:f1:8e:02:50:39:6d:da:07:f1:ba:cd:f8:83:9c:6e:c0:
        d3:43:b2:83:b0:bc:d3:06:48:c6:13:73:59:7f:99:61:81:b1:
        70:bd:90:44:b7:ff:6a:8b:cb:50:b6:ca:ca:f7:b7:62:a7:58:
        48:72:d6:9a:1a:6f:e5:58:73:a3:b2:20:32:9a:17:42:16:79:
        bd:40:a3:4a:86:ae:09:3a:cf:86:43:b9:fe:42:4b:dd:3f:33:
        e8:a5:3a:0d:23:05:7c:56:ea:e6:32:17:fc:ae:f6:73:10:fa:
        c6:c6:d4:82:ce:ce:af:ca:10:da:8b:2f:7c:fa:3c:d1:34:81:
        6c:c6:20:5d:e9:e5:41:38:9c:58:65:2e:d4:52:40:51:95:ae:
        57:61:d9:b0:98:fd:4e:75:e8:8b:0d:ec:a1:18:93:02:57:44:
        63:19:12:a4:61:60:d2:03:d7:c2:42:e2:6e:13:b5:4a:a6:53:
        85:4b:e8:ba:89:ff:09:69:02:5e:51:09:8c:42:ef:a8:88:89:
        05:da:0c:50:3e:fb:7f:96:1d:54:38:68:41:40:e3:9a:83:d3:
        71:3d:05:dd:31:89:3b:03:cd:ba:3a:bd:b0:43:51:33:0f:f6:
        a9:6e:b0:55:d6:13:72:c2:17:54:6d:4c:b9:b6:33:7f:4d:d5:
        b3:27:61:82:38:24:90:2a:98:91:36:48:30:7d:34:f2:98:4b:
        83:84:1d:33:56:17:7e:54:6e:80:e4:bc:73:e5:32:80:ef:a7:
        0e:db:35:b5:ab:ab:56:e0
-----BEGIN CERTIFICATE-----
MIIFpjCCA46gAwIBAgICEAEwDQYJKoZIhvcNAQELBQAwXTELMAkGA1UEBhMCVUEx
EDAOBgNVBAgMB1VrcmFpbmUxDTALBgNVBAcMBEt5aXYxDDAKBgNVBAoMA0tQSTEL
MAkGA1UECwwCT1QxEjAQBgNVBAMMCXBsYW5ldCBDQTAeFw0yNTA1MDcyMTI0MzRa
Fw0yNzA4MTAyMTI0MzRaMGMxCzAJBgNVBAYTAlVBMRAwDgYDVQQIDAdVa3JhaW5l
MQ0wCwYDVQQHDARLeWl2MQwwCgYDVQQKDANLUEkxCzAJBgNVBAsMAk9UMRgwFgYD
VQQDDA9tYWlsLnpvbmUwMi5vcmcwggIiMA0GCSqGSIb3DQEBAQUAA4ICDwAwggIK
AoICAQCc6zjUDeRab35O62pl2QGhrr8fcGCKIEF8XufGcvgfkcfbrOSs8sOIJpc3
IUcDouD0s0ZK5drA9YIC1rnpdvOxiakLjqGe9lUaUV05wLEA3t6cqgFHacNRZAR8
fQXNXIsWZdQFyrwVriQyqLAPRYwL/9MIJ2/AMoAz6t8S67T0gt7STBaufIUN2LnK
jjVghNZjGaf5PN6plth1ys6/oG73ioI9o0RyiL2StEaeRUUdmzIB4N2GmVh07MVv
CVXikQ7RY46OVxqim2+PT2GYhCvx1tls/paOGBiXnmo/qgT/WJ8tbTDqxI+0d6s7
FGrzRUwoV6YN3nUhflxGEfeXEsPprM8493eezqQ0Q1OveDgPqwEkFtHWeZvQ/Zwv
FNtnoBLi8yrxj7TAJX+jpByK7NR9HixcuUxocXHtBGHC9tD9MzxjkbcwDoNpE9NC
PNNEc69+NDbEwaih6N3NXQG7J0asLEE7VldmDm5gjBl0AnjKNkINw9q13mhHG53A
Ei/upiHtrbwchGdSM1brOhh3d7+n1NcjQhK8sm/SJVgVlxapVdXg29xO3vDNdO92
fVUhjiccffGmk+bfs57Ufq2Rd8SN0lC9D66WDK25FEXbwGYGBU1Gl9Wtgyv94tS+
75HE8CUJBLxhMfoZH+dfL2UFXxK2geknyLnImK1UxXTZYeVVpwIDAQABo2owaDAm
BgNVHREEHzAdgg9tYWlsLnpvbmUwMi5vcmeCCnpvbmUwMi5vcmcwHQYDVR0OBBYE
FDRebJQvZJC0rbeMXfZcYyobdD3FMB8GA1UdIwQYMBaAFOO2R1b5pgIFWE94Q8gX
ukPzCwbUMA0GCSqGSIb3DQEBCwUAA4ICAQB57lUQQ1ANjexLRYOW7NPyinNWoUqy
foLMi8Htqt425ja+XAcZD9frgC7e0rA7n+vlG9MVF8Ctkj3luoI9qUWkx2jaskO/
2BWCt/TdTjB4zOwG6Bo4Pv7WGENifuejVWDyByMQLnRMarR3NfPbMU2A+YRb4xKX
ekN0WUa8JjoHXYkEjoISzqpgoMPsFP0/lbwcKPFT8qOCyZXtAAgc/suZC6E2uxkw
00eb9zDmkhSnk9E8QjMSgzDKUQ+7F41nDZNjk+K8JYi6CTrqFP4tk1+JNZ+mENVI
Y1QasvGOAlA5bdoH8brN+IOcbsDTQ7KDsLzTBkjGE3NZf5lhgbFwvZBEt/9qi8tQ
tsrK97dip1hIctaaGm/lWHOjsiAymhdCFnm9QKNKhq4JOs+GQ7n+QkvdPzPopToN
IwV8VurmMhf8rvZzEPrGxtSCzs6vyhDaiy98+jzRNIFsxiBd6eVBOJxYZS7UUkBR
la5XYdmwmP1OdeiLDeyhGJMCV0RjGRKkYWDSA9fCQuJuE7VKplOFS+i6if8JaQJe
UQmMQu+oiIkF2gxQPvt/lh1UOGhBQOOag9NxPQXdMYk7A826Or2wQ1EzD/apbrBV
1hNywhdUbUy5tjN/TdWzJ2GCOCSQKpiRNkgwfTTymEuDhB0zVhd+VG6A5Lxz5TKA
76cO2zW1q6tW4A==
-----END CERTIFICATE-----
